target datalayout = "e-m:e-p270:32:32-p271:32:32-p272:64:64-i64:64-i128:128-f80:128-n8:16:32:64-S128"
target triple = "x86_64-pc-linux-gnu"

%struct.SurfaceDataRasInfo = type { %struct.SurfaceDataBounds, ptr, i32, i32, i32, i32, ptr, ptr, ptr, ptr, ptr, ptr, i32, %union.anon.0 }
%struct.SurfaceDataBounds = type { i32, i32, i32, i32 }
%union.anon.0 = type { ptr, [56 x i8] }

; Function Attrs: nounwind uwtable
define hidden void @IntArgbPreBicubicTransformHelper(ptr noundef %0, ptr noundef %1, i32 noundef %2, i64 noundef %3, i64 noundef %4, i64 noundef %5, i64 noundef %6) #1 {
  %8 = alloca ptr, align 8
  %9 = alloca ptr, align 8
  %10 = alloca i32, align 4
  %11 = alloca i64, align 8
  %12 = alloca i64, align 8
  %13 = alloca i64, align 8
  %14 = alloca i64, align 8
  %15 = alloca i32, align 4
  %16 = alloca i32, align 4
  %17 = alloca i32, align 4
  %18 = alloca i32, align 4
  %19 = alloca i32, align 4
  %20 = alloca ptr, align 8
  %21 = alloca i32, align 4
  %22 = alloca i32, align 4
  %23 = alloca i32, align 4
  %24 = alloca i32, align 4
  %25 = alloca i32, align 4
  %26 = alloca i32, align 4
  %27 = alloca i32, align 4
  %28 = alloca i32, align 4
  %29 = alloca i32, align 4
  %30 = alloca ptr, align 8
  store ptr %0, ptr %8, align 8
  store ptr %1, ptr %9, align 8
  store i32 %2, ptr %10, align 4
  store i64 %3, ptr %11, align 8
  store i64 %4, ptr %12, align 8
  store i64 %5, ptr %13, align 8
  store i64 %6, ptr %14, align 8
  %31 = load ptr, ptr %8, align 8
  %32 = getelementptr inbounds %struct.SurfaceDataRasInfo, ptr %31, i32 0, i32 4
  %33 = load i32, ptr %32, align 8
  store i32 %33, ptr %15, align 4
  %34 = load ptr, ptr %9, align 8
  %35 = load i32, ptr %10, align 4
  %36 = mul nsw i32 %35, 16
  %37 = sext i32 %36 to i64
  %38 = getelementptr inbounds i32, ptr %34, i64 %37
  store ptr %38, ptr %20, align 8
  %39 = load ptr, ptr %8, align 8
  %40 = getelementptr inbounds %struct.SurfaceDataRasInfo, ptr %39, i32 0, i32 0
  %41 = getelementptr inbounds %struct.SurfaceDataBounds, ptr %40, i32 0, i32 0
  %42 = load i32, ptr %41, align 8
  store i32 %42, ptr %16, align 4
  %43 = load ptr, ptr %8, align 8
  %44 = getelementptr inbounds %struct.SurfaceDataRasInfo, ptr %43, i32 0, i32 0
  %45 = getelementptr inbounds %struct.SurfaceDataBounds, ptr %44, i32 0, i32 2
  %46 = load i32, ptr %45, align 8
  %47 = load i32, ptr %16, align 4
  %48 = sub nsw i32 %46, %47
  store i32 %48, ptr %18, align 4
  %49 = load ptr, ptr %8, align 8
  %50 = getelementptr inbounds %struct.SurfaceDataRasInfo, ptr %49, i32 0, i32 0
  %51 = getelementptr inbounds %struct.SurfaceDataBounds, ptr %50, i32 0, i32 1
  %52 = load i32, ptr %51, align 4
  store i32 %52, ptr %17, align 4
  %53 = load ptr, ptr %8, align 8
  %54 = getelementptr inbounds %struct.SurfaceDataRasInfo, ptr %53, i32 0, i32 0
  %55 = getelementptr inbounds %struct.SurfaceDataBounds, ptr %54, i32 0, i32 3
  %56 = load i32, ptr %55, align 4
  %57 = load i32, ptr %17, align 4
  %58 = sub nsw i32 %56, %57
  store i32 %58, ptr %19, align 4
  %59 = load i64, ptr %11, align 8
  %60 = sub nsw i64 %59, 2147483648
  store i64 %60, ptr %11, align 8
  %61 = load i64, ptr %13, align 8
  %62 = sub nsw i64 %61, 2147483648
  store i64 %62, ptr %13, align 8
  br label %63

63:                                               ; preds = %67, %7
  %64 = load ptr, ptr %9, align 8
  %65 = load ptr, ptr %20, align 8
  %66 = icmp ult ptr %64, %65
  br i1 %66, label %67, label %314

67:                                               ; preds = %63
  %68 = load i64, ptr %11, align 8
  %69 = ashr i64 %68, 32
  %70 = trunc i64 %69 to i32
  store i32 %70, ptr %21, align 4
  %71 = load i64, ptr %13, align 8
  %72 = ashr i64 %71, 32
  %73 = trunc i64 %72 to i32
  store i32 %73, ptr %22, align 4
  %74 = load i32, ptr %21, align 4
  %75 = sub nsw i32 0, %74
  %76 = ashr i32 %75, 31
  store i32 %76, ptr %23, align 4
  %77 = load i32, ptr %21, align 4
  %78 = add nsw i32 %77, 1
  %79 = load i32, ptr %18, align 4
  %80 = sub nsw i32 %78, %79
  %81 = lshr i32 %80, 31
  store i32 %81, ptr %24, align 4
  %82 = load i32, ptr %21, align 4
  %83 = add nsw i32 %82, 2
  %84 = load i32, ptr %18, align 4
  %85 = sub nsw i32 %83, %84
  %86 = lshr i32 %85, 31
  store i32 %86, ptr %25, align 4
  %87 = load i32, ptr %21, align 4
  %88 = ashr i32 %87, 31
  store i32 %88, ptr %29, align 4
  %89 = load i32, ptr %29, align 4
  %90 = load i32, ptr %21, align 4
  %91 = sub nsw i32 %90, %89
  store i32 %91, ptr %21, align 4
  %92 = load i32, ptr %29, align 4
  %93 = load i32, ptr %24, align 4
  %94 = add nsw i32 %93, %92
  store i32 %94, ptr %24, align 4
  %95 = load i32, ptr %24, align 4
  %96 = load i32, ptr %25, align 4
  %97 = add nsw i32 %96, %95
  store i32 %97, ptr %25, align 4
  %98 = load i32, ptr %22, align 4
  %99 = sub nsw i32 0, %98
  %100 = ashr i32 %99, 31
  %101 = load i32, ptr %15, align 4
  %102 = sub nsw i32 0, %101
  %103 = and i32 %100, %102
  store i32 %103, ptr %26, align 4
  %104 = load i32, ptr %22, align 4
  %105 = add nsw i32 %104, 1
  %106 = load i32, ptr %19, align 4
  %107 = sub nsw i32 %105, %106
  %108 = ashr i32 %107, 31
  %109 = load i32, ptr %15, align 4
  %110 = and i32 %108, %109
  store i32 %110, ptr %27, align 4
  %111 = load i32, ptr %22, align 4
  %112 = add nsw i32 %111, 2
  %113 = load i32, ptr %19, align 4
  %114 = sub nsw i32 %112, %113
  %115 = ashr i32 %114, 31
  %116 = load i32, ptr %15, align 4
  %117 = and i32 %115, %116
  store i32 %117, ptr %28, align 4
  %118 = load i32, ptr %22, align 4
  %119 = ashr i32 %118, 31
  store i32 %119, ptr %29, align 4
  %120 = load i32, ptr %29, align 4
  %121 = load i32, ptr %22, align 4
  %122 = sub nsw i32 %121, %120
  store i32 %122, ptr %22, align 4
  %123 = load i32, ptr %29, align 4
  %124 = load i32, ptr %15, align 4
  %125 = sub nsw i32 0, %124
  %126 = and i32 %123, %125
  %127 = load i32, ptr %27, align 4
  %128 = add nsw i32 %127, %126
  store i32 %128, ptr %27, align 4
  %129 = load i32, ptr %16, align 4
  %130 = load i32, ptr %21, align 4
  %131 = add nsw i32 %130, %129
  store i32 %131, ptr %21, align 4
  %132 = load ptr, ptr %8, align 8
  %133 = getelementptr inbounds %struct.SurfaceDataRasInfo, ptr %132, i32 0, i32 1
  %134 = load ptr, ptr %133, align 8
  %135 = ptrtoint ptr %134 to i64
  %136 = load i32, ptr %22, align 4
  %137 = load i32, ptr %17, align 4
  %138 = add nsw i32 %136, %137
  %139 = sext i32 %138 to i64
  %140 = load i32, ptr %15, align 4
  %141 = sext i32 %140 to i64
  %142 = mul nsw i64 %139, %141
  %143 = add nsw i64 %135, %142
  %144 = inttoptr i64 %143 to ptr
  store ptr %144, ptr %30, align 8
  %145 = load ptr, ptr %30, align 8
  %146 = ptrtoint ptr %145 to i64
  %147 = load i32, ptr %26, align 4
  %148 = sext i32 %147 to i64
  %149 = add nsw i64 %146, %148
  %150 = inttoptr i64 %149 to ptr
  store ptr %150, ptr %30, align 8
  %151 = load ptr, ptr %30, align 8
  %152 = load i32, ptr %21, align 4
  %153 = load i32, ptr %23, align 4
  %154 = add nsw i32 %152, %153
  %155 = sext i32 %154 to i64
  %156 = getelementptr inbounds i32, ptr %151, i64 %155
  %157 = load i32, ptr %156, align 4
  %158 = load ptr, ptr %9, align 8
  %159 = getelementptr inbounds i32, ptr %158, i64 0
  store i32 %157, ptr %159, align 4
  %160 = load ptr, ptr %30, align 8
  %161 = load i32, ptr %21, align 4
  %162 = sext i32 %161 to i64
  %163 = getelementptr inbounds i32, ptr %160, i64 %162
  %164 = load i32, ptr %163, align 4
  %165 = load ptr, ptr %9, align 8
  %166 = getelementptr inbounds i32, ptr %165, i64 1
  store i32 %164, ptr %166, align 4
  %167 = load ptr, ptr %30, align 8
  %168 = load i32, ptr %21, align 4
  %169 = load i32, ptr %24, align 4
  %170 = add nsw i32 %168, %169
  %171 = sext i32 %170 to i64
  %172 = getelementptr inbounds i32, ptr %167, i64 %171
  %173 = load i32, ptr %172, align 4
  %174 = load ptr, ptr %9, align 8
  %175 = getelementptr inbounds i32, ptr %174, i64 2
  store i32 %173, ptr %175, align 4
  %176 = load ptr, ptr %30, align 8
  %177 = load i32, ptr %21, align 4
  %178 = load i32, ptr %25, align 4
  %179 = add nsw i32 %177, %178
  %180 = sext i32 %179 to i64
  %181 = getelementptr inbounds i32, ptr %176, i64 %180
  %182 = load i32, ptr %181, align 4
  %183 = load ptr, ptr %9, align 8
  %184 = getelementptr inbounds i32, ptr %183, i64 3
  store i32 %182, ptr %184, align 4
  %185 = load ptr, ptr %30, align 8
  %186 = ptrtoint ptr %185 to i64
  %187 = load i32, ptr %26, align 4
  %188 = sub nsw i32 0, %187
  %189 = sext i32 %188 to i64
  %190 = add nsw i64 %186, %189
  %191 = inttoptr i64 %190 to ptr
  store ptr %191, ptr %30, align 8
  %192 = load ptr, ptr %30, align 8
  %193 = load i32, ptr %21, align 4
  %194 = load i32, ptr %23, align 4
  %195 = add nsw i32 %193, %194
  %196 = sext i32 %195 to i64
  %197 = getelementptr inbounds i32, ptr %192, i64 %196
  %198 = load i32, ptr %197, align 4
  %199 = load ptr, ptr %9, align 8
  %200 = getelementptr inbounds i32, ptr %199, i64 4
  store i32 %198, ptr %200, align 4
  %201 = load ptr, ptr %30, align 8
  %202 = load i32, ptr %21, align 4
  %203 = sext i32 %202 to i64
  %204 = getelementptr inbounds i32, ptr %201, i64 %203
  %205 = load i32, ptr %204, align 4
  %206 = load ptr, ptr %9, align 8
  %207 = getelementptr inbounds i32, ptr %206, i64 5
  store i32 %205, ptr %207, align 4
  %208 = load ptr, ptr %30, align 8
  %209 = load i32, ptr %21, align 4
  %210 = load i32, ptr %24, align 4
  %211 = add nsw i32 %209, %210
  %212 = sext i32 %211 to i64
  %213 = getelementptr inbounds i32, ptr %208, i64 %212
  %214 = load i32, ptr %213, align 4
  %215 = load ptr, ptr %9, align 8
  %216 = getelementptr inbounds i32, ptr %215, i64 6
  store i32 %214, ptr %216, align 4
  %217 = load ptr, ptr %30, align 8
  %218 = load i32, ptr %21, align 4
  %219 = load i32, ptr %25, align 4
  %220 = add nsw i32 %218, %219
  %221 = sext i32 %220 to i64
  %222 = getelementptr inbounds i32, ptr %217, i64 %221
  %223 = load i32, ptr %222, align 4
  %224 = load ptr, ptr %9, align 8
  %225 = getelementptr inbounds i32, ptr %224, i64 7
  store i32 %223, ptr %225, align 4
  %226 = load ptr, ptr %30, align 8
  %227 = ptrtoint ptr %226 to i64
  %228 = load i32, ptr %27, align 4
  %229 = sext i32 %228 to i64
  %230 = add nsw i64 %227, %229
  %231 = inttoptr i64 %230 to ptr
  store ptr %231, ptr %30, align 8
  %232 = load ptr, ptr %30, align 8
  %233 = load i32, ptr %21, align 4
  %234 = load i32, ptr %23, align 4
  %235 = add nsw i32 %233, %234
  %236 = sext i32 %235 to i64
  %237 = getelementptr inbounds i32, ptr %232, i64 %236
  %238 = load i32, ptr %237, align 4
  %239 = load ptr, ptr %9, align 8
  %240 = getelementptr inbounds i32, ptr %239, i64 8
  store i32 %238, ptr %240, align 4
  %241 = load ptr, ptr %30, align 8
  %242 = load i32, ptr %21, align 4
  %243 = sext i32 %242 to i64
  %244 = getelementptr inbounds i32, ptr %241, i64 %243
  %245 = load i32, ptr %244, align 4
  %246 = load ptr, ptr %9, align 8
  %247 = getelementptr inbounds i32, ptr %246, i64 9
  store i32 %245, ptr %247, align 4
  %248 = load ptr, ptr %30, align 8
  %249 = load i32, ptr %21, align 4
  %250 = load i32, ptr %24, align 4
  %251 = add nsw i32 %249, %250
  %252 = sext i32 %251 to i64
  %253 = getelementptr inbounds i32, ptr %248, i64 %252
  %254 = load i32, ptr %253, align 4
  %255 = load ptr, ptr %9, align 8
  %256 = getelementptr inbounds i32, ptr %255, i64 10
  store i32 %254, ptr %256, align 4
  %257 = load ptr, ptr %30, align 8
  %258 = load i32, ptr %21, align 4
  %259 = load i32, ptr %25, align 4
  %260 = add nsw i32 %258, %259
  %261 = sext i32 %260 to i64
  %262 = getelementptr inbounds i32, ptr %257, i64 %261
  %263 = load i32, ptr %262, align 4
  %264 = load ptr, ptr %9, align 8
  %265 = getelementptr inbounds i32, ptr %264, i64 11
  store i32 %263, ptr %265, align 4
  %266 = load ptr, ptr %30, align 8
  %267 = ptrtoint ptr %266 to i64
  %268 = load i32, ptr %28, align 4
  %269 = sext i32 %268 to i64
  %270 = add nsw i64 %267, %269
  %271 = inttoptr i64 %270 to ptr
  store ptr %271, ptr %30, align 8
  %272 = load ptr, ptr %30, align 8
  %273 = load i32, ptr %21, align 4
  %274 = load i32, ptr %23, align 4
  %275 = add nsw i32 %273, %274
  %276 = sext i32 %275 to i64
  %277 = getelementptr inbounds i32, ptr %272, i64 %276
  %278 = load i32, ptr %277, align 4
  %279 = load ptr, ptr %9, align 8
  %280 = getelementptr inbounds i32, ptr %279, i64 12
  store i32 %278, ptr %280, align 4
  %281 = load ptr, ptr %30, align 8
  %282 = load i32, ptr %21, align 4
  %283 = sext i32 %282 to i64
  %284 = getelementptr inbounds i32, ptr %281, i64 %283
  %285 = load i32, ptr %284, align 4
  %286 = load ptr, ptr %9, align 8
  %287 = getelementptr inbounds i32, ptr %286, i64 13
  store i32 %285, ptr %287, align 4
  %288 = load ptr, ptr %30, align 8
  %289 = load i32, ptr %21, align 4
  %290 = load i32, ptr %24, align 4
  %291 = add nsw i32 %289, %290
  %292 = sext i32 %291 to i64
  %293 = getelementptr inbounds i32, ptr %288, i64 %292
  %294 = load i32, ptr %293, align 4
  %295 = load ptr, ptr %9, align 8
  %296 = getelementptr inbounds i32, ptr %295, i64 14
  store i32 %294, ptr %296, align 4
  %297 = load ptr, ptr %30, align 8
  %298 = load i32, ptr %21, align 4
  %299 = load i32, ptr %25, align 4
  %300 = add nsw i32 %298, %299
  %301 = sext i32 %300 to i64
  %302 = getelementptr inbounds i32, ptr %297, i64 %301
  %303 = load i32, ptr %302, align 4
  %304 = load ptr, ptr %9, align 8
  %305 = getelementptr inbounds i32, ptr %304, i64 15
  store i32 %303, ptr %305, align 4
  %306 = load ptr, ptr %9, align 8
  %307 = getelementptr inbounds i32, ptr %306, i64 16
  store ptr %307, ptr %9, align 8
  %308 = load i64, ptr %12, align 8
  %309 = load i64, ptr %11, align 8
  %310 = add nsw i64 %309, %308
  store i64 %310, ptr %11, align 8
  %311 = load i64, ptr %14, align 8
  %312 = load i64, ptr %13, align 8
  %313 = add nsw i64 %312, %311
  store i64 %313, ptr %13, align 8
  br label %63, !llvm.loop !72

314:                                              ; preds = %63
  ret void
}