; Function Attrs: nofree norecurse nosync nounwind memory(readwrite, inaccessiblemem: none) uwtable
define hidden void @IntArgbPreBicubicTransformHelper(ptr nocapture noundef readonly %0, ptr noundef writeonly %1, i32 noundef %2, i64 noundef %3, i64 noundef %4, i64 noundef %5, i64 noundef %6) #1 {
  %8 = getelementptr inbounds i8, ptr %0, i64 32
  %9 = load i32, ptr %8, align 8
  %10 = shl nsw i32 %2, 4
  %11 = sext i32 %10 to i64
  %12 = getelementptr inbounds i32, ptr %1, i64 %11
  %13 = load i32, ptr %0, align 8
  %14 = getelementptr inbounds i8, ptr %0, i64 8
  %15 = load i32, ptr %14, align 8
  %16 = sub nsw i32 %15, %13
  %17 = getelementptr inbounds i8, ptr %0, i64 4
  %18 = load i32, ptr %17, align 4
  %19 = getelementptr inbounds i8, ptr %0, i64 12
  %20 = load i32, ptr %19, align 4
  %21 = sub nsw i32 %20, %18
  %22 = icmp sgt i32 %2, 0
  br i1 %22, label %.lr.ph, label %._crit_edge

.lr.ph:                                           ; preds = %7
  %23 = add nsw i64 %5, -2147483648
  %24 = add nsw i64 %3, -2147483648
  %25 = sub nsw i32 0, %9
  %26 = getelementptr inbounds i8, ptr %0, i64 16
  %27 = sext i32 %9 to i64
  br label %28

28:                                               ; preds = %.lr.ph, %28
  %.0123 = phi ptr [ %1, %.lr.ph ], [ %129, %28 ]
  %.0119122 = phi i64 [ %24, %.lr.ph ], [ %130, %28 ]
  %.0120121 = phi i64 [ %23, %.lr.ph ], [ %131, %28 ]
  %29 = lshr i64 %.0119122, 32
  %30 = trunc nuw i64 %29 to i32
  %31 = lshr i64 %.0120121, 32
  %32 = trunc nuw i64 %31 to i32
  %33 = icmp sgt i32 %30, 0
  %34 = sext i1 %33 to i32
  %35 = add nsw i32 %30, 1
  %36 = icmp slt i32 %35, %16
  %37 = zext i1 %36 to i32
  %38 = add nsw i32 %30, 2
  %39 = icmp slt i32 %38, %16
  %40 = zext i1 %39 to i32
  %41 = ashr i32 %30, 31
  %42 = sub nsw i32 %30, %41
  %43 = add nsw i32 %41, %37
  %44 = icmp sgt i32 %32, 0
  %45 = select i1 %44, i32 %25, i32 0
  %46 = add nsw i32 %32, 1
  %47 = icmp slt i32 %46, %21
  %48 = select i1 %47, i32 %9, i32 0
  %49 = add nsw i32 %32, 2
  %50 = icmp slt i32 %49, %21
  %51 = select i1 %50, i32 %9, i32 0
  %.neg124 = lshr i32 %32, 31
  %isneg = icmp slt i64 %.0120121, 0
  %52 = select i1 %isneg, i32 %25, i32 0
  %53 = add nsw i32 %48, %52
  %54 = add nsw i32 %42, %13
  %55 = load ptr, ptr %26, align 8
  %56 = ptrtoint ptr %55 to i64
  %57 = add i32 %18, %32
  %58 = add i32 %57, %.neg124
  %59 = sext i32 %58 to i64
  %60 = mul nsw i64 %59, %27
  %61 = sext i32 %45 to i64
  %62 = add nsw i64 %60, %61
  %63 = add i64 %62, %56
  %64 = inttoptr i64 %63 to ptr
  %65 = add nsw i32 %54, %34
  %66 = sext i32 %65 to i64
  %67 = getelementptr inbounds i32, ptr %64, i64 %66
  %68 = load i32, ptr %67, align 4
  store i32 %68, ptr %.0123, align 4
  %69 = sext i32 %54 to i64
  %70 = getelementptr inbounds i32, ptr %64, i64 %69
  %71 = load i32, ptr %70, align 4
  %72 = getelementptr inbounds i8, ptr %.0123, i64 4
  store i32 %71, ptr %72, align 4
  %73 = add i32 %43, %54
  %74 = sext i32 %73 to i64
  %75 = getelementptr inbounds i32, ptr %64, i64 %74
  %76 = load i32, ptr %75, align 4
  %77 = getelementptr inbounds i8, ptr %.0123, i64 8
  store i32 %76, ptr %77, align 4
  %78 = add i32 %73, %40
  %79 = sext i32 %78 to i64
  %80 = getelementptr inbounds i32, ptr %64, i64 %79
  %81 = load i32, ptr %80, align 4
  %82 = getelementptr inbounds i8, ptr %.0123, i64 12
  store i32 %81, ptr %82, align 4
  %83 = sub nsw i32 0, %45
  %84 = sext i32 %83 to i64
  %85 = add nsw i64 %63, %84
  %86 = inttoptr i64 %85 to ptr
  %87 = getelementptr inbounds i32, ptr %86, i64 %66
  %88 = load i32, ptr %87, align 4
  %89 = getelementptr inbounds i8, ptr %.0123, i64 16
  store i32 %88, ptr %89, align 4
  %90 = getelementptr inbounds i32, ptr %86, i64 %69
  %91 = load i32, ptr %90, align 4
  %92 = getelementptr inbounds i8, ptr %.0123, i64 20
  store i32 %91, ptr %92, align 4
  %93 = getelementptr inbounds i32, ptr %86, i64 %74
  %94 = load i32, ptr %93, align 4
  %95 = getelementptr inbounds i8, ptr %.0123, i64 24
  store i32 %94, ptr %95, align 4
  %96 = getelementptr inbounds i32, ptr %86, i64 %79
  %97 = load i32, ptr %96, align 4
  %98 = getelementptr inbounds i8, ptr %.0123, i64 28
  store i32 %97, ptr %98, align 4
  %99 = sext i32 %53 to i64
  %100 = add nsw i64 %85, %99
  %101 = inttoptr i64 %100 to ptr
  %102 = getelementptr inbounds i32, ptr %101, i64 %66
  %103 = load i32, ptr %102, align 4
  %104 = getelementptr inbounds i8, ptr %.0123, i64 32
  store i32 %103, ptr %104, align 4
  %105 = getelementptr inbounds i32, ptr %101, i64 %69
  %106 = load i32, ptr %105, align 4
  %107 = getelementptr inbounds i8, ptr %.0123, i64 36
  store i32 %106, ptr %107, align 4
  %108 = getelementptr inbounds i32, ptr %101, i64 %74
  %109 = load i32, ptr %108, align 4
  %110 = getelementptr inbounds i8, ptr %.0123, i64 40
  store i32 %109, ptr %110, align 4
  %111 = getelementptr inbounds i32, ptr %101, i64 %79
  %112 = load i32, ptr %111, align 4
  %113 = getelementptr inbounds i8, ptr %.0123, i64 44
  store i32 %112, ptr %113, align 4
  %114 = sext i32 %51 to i64
  %115 = add nsw i64 %100, %114
  %116 = inttoptr i64 %115 to ptr
  %117 = getelementptr inbounds i32, ptr %116, i64 %66
  %118 = load i32, ptr %117, align 4
  %119 = getelementptr inbounds i8, ptr %.0123, i64 48
  store i32 %118, ptr %119, align 4
  %120 = getelementptr inbounds i32, ptr %116, i64 %69
  %121 = load i32, ptr %120, align 4
  %122 = getelementptr inbounds i8, ptr %.0123, i64 52
  store i32 %121, ptr %122, align 4
  %123 = getelementptr inbounds i32, ptr %116, i64 %74
  %124 = load i32, ptr %123, align 4
  %125 = getelementptr inbounds i8, ptr %.0123, i64 56
  store i32 %124, ptr %125, align 4
  %126 = getelementptr inbounds i32, ptr %116, i64 %79
  %127 = load i32, ptr %126, align 4
  %128 = getelementptr inbounds i8, ptr %.0123, i64 60
  store i32 %127, ptr %128, align 4
  %129 = getelementptr inbounds i8, ptr %.0123, i64 64
  %130 = add nsw i64 %.0119122, %4
  %131 = add nsw i64 %.0120121, %6
  %132 = icmp ult ptr %129, %12
  br i1 %132, label %28, label %._crit_edge, !llvm.loop !72

._crit_edge:                                      ; preds = %28, %7
  ret void
}